target datalayout = "e-m:e-p270:32:32-p271:32:32-p272:64:64-i64:64-i128:128-f80:128-n8:16:32:64-S128"
target triple = "x86_64-pc-linux-gnu"

%struct.sockaddr = type { i16, [14 x i8] }
%struct.sockaddr_in = type { i16, i16, %struct.in_addr, [8 x i8] }
%struct.in_addr = type { i32 }
%struct.sockaddr_in6 = type { i16, i16, i32, %struct.in6_addr, i32 }
%struct.in6_addr = type { %union.anon }
%union.anon = type { [4 x i32] }

@.str.4 = private unnamed_addr constant [54 x i8] c"unhandled sa_family %d passed to pmix_net_islocalhost\00", align 1

; Function Attrs: inlinehint nounwind uwtable
define internal i32 @__bswap_32(i32 noundef %0) #6 {
  %2 = alloca i32, align 4
  store i32 %0, ptr %2, align 4, !tbaa !15
  %3 = load i32, ptr %2, align 4, !tbaa !15
  %4 = and i32 %3, -16777216
  %5 = lshr i32 %4, 24
  %6 = load i32, ptr %2, align 4, !tbaa !15
  %7 = and i32 %6, 16711680
  %8 = lshr i32 %7, 8
  %9 = or i32 %5, %8
  %10 = load i32, ptr %2, align 4, !tbaa !15
  %11 = and i32 %10, 65280
  %12 = shl i32 %11, 8
  %13 = or i32 %9, %12
  %14 = load i32, ptr %2, align 4, !tbaa !15
  %15 = and i32 %14, 255
  %16 = shl i32 %15, 24
  %17 = or i32 %13, %16
  ret i32 %17
}

; Function Attrs: nounwind uwtable
define zeroext i1 @pmix_net_islocalhost(ptr noundef %0) #0 {
  %2 = alloca i1, align 1
  %3 = alloca ptr, align 8
  %4 = alloca ptr, align 8
  %5 = alloca i32, align 4
  %6 = alloca ptr, align 8
  %7 = alloca ptr, align 8
  %8 = alloca i32, align 4
  store ptr %0, ptr %3, align 8, !tbaa !26
  %9 = load ptr, ptr %3, align 8, !tbaa !26
  %10 = getelementptr inbounds nuw %struct.sockaddr, ptr %9, i32 0, i32 0
  %11 = load i16, ptr %10, align 2, !tbaa !27
  %12 = zext i16 %11 to i32
  switch i32 %12, label %61 [
    i32 2, label %13
    i32 10, label %25
  ]

13:                                               ; preds = %1
  call void @llvm.lifetime.start.p0(i64 8, ptr %4) #10
  %14 = load ptr, ptr %3, align 8, !tbaa !26
  store ptr %14, ptr %4, align 8, !tbaa !30
  %15 = load ptr, ptr %4, align 8, !tbaa !30
  %16 = getelementptr inbounds nuw %struct.sockaddr_in, ptr %15, i32 0, i32 2
  %17 = getelementptr inbounds nuw %struct.in_addr, ptr %16, i32 0, i32 0
  %18 = load i32, ptr %17, align 4, !tbaa !32
  %19 = call i32 @__bswap_32(i32 noundef %18)
  %20 = and i32 2130706432, %19
  %21 = icmp eq i32 2130706432, %20
  br i1 %21, label %22, label %23

22:                                               ; preds = %13
  store i1 true, ptr %2, align 1
  store i32 1, ptr %5, align 4
  br label %24

23:                                               ; preds = %13
  store i1 false, ptr %2, align 1
  store i32 1, ptr %5, align 4
  br label %24

24:                                               ; preds = %23, %22
  call void @llvm.lifetime.end.p0(i64 8, ptr %4) #10
  br label %66

25:                                               ; preds = %1
  call void @llvm.lifetime.start.p0(i64 8, ptr %6) #10
  %26 = load ptr, ptr %3, align 8, !tbaa !26
  store ptr %26, ptr %6, align 8, !tbaa !35
  call void @llvm.lifetime.start.p0(i64 8, ptr %7) #10
  %27 = load ptr, ptr %6, align 8, !tbaa !35
  %28 = getelementptr inbounds nuw %struct.sockaddr_in6, ptr %27, i32 0, i32 3
  store ptr %28, ptr %7, align 8, !tbaa !37
  %29 = load ptr, ptr %7, align 8, !tbaa !37
  %30 = getelementptr inbounds nuw %struct.in6_addr, ptr %29, i32 0, i32 0
  %31 = getelementptr inbounds [4 x i32], ptr %30, i64 0, i64 0
  %32 = load i32, ptr %31, align 4, !tbaa !39
  %33 = icmp eq i32 %32, 0
  br i1 %33, label %34, label %53

34:                                               ; preds = %25
  %35 = load ptr, ptr %7, align 8, !tbaa !37
  %36 = getelementptr inbounds nuw %struct.in6_addr, ptr %35, i32 0, i32 0
  %37 = getelementptr inbounds [4 x i32], ptr %36, i64 0, i64 1
  %38 = load i32, ptr %37, align 4, !tbaa !39
  %39 = icmp eq i32 %38, 0
  br i1 %39, label %40, label %53

40:                                               ; preds = %34
  %41 = load ptr, ptr %7, align 8, !tbaa !37
  %42 = getelementptr inbounds nuw %struct.in6_addr, ptr %41, i32 0, i32 0
  %43 = getelementptr inbounds [4 x i32], ptr %42, i64 0, i64 2
  %44 = load i32, ptr %43, align 4, !tbaa !39
  %45 = icmp eq i32 %44, 0
  br i1 %45, label %46, label %53

46:                                               ; preds = %40
  %47 = load ptr, ptr %7, align 8, !tbaa !37
  %48 = getelementptr inbounds nuw %struct.in6_addr, ptr %47, i32 0, i32 0
  %49 = getelementptr inbounds [4 x i32], ptr %48, i64 0, i64 3
  %50 = load i32, ptr %49, align 4, !tbaa !39
  %51 = call i32 @__bswap_32(i32 noundef 1)
  %52 = icmp eq i32 %50, %51
  br label %53

53:                                               ; preds = %46, %40, %34, %25
  %54 = phi i1 [ false, %40 ], [ false, %34 ], [ false, %25 ], [ %52, %46 ]
  %55 = zext i1 %54 to i32
  store i32 %55, ptr %8, align 4, !tbaa !15
  call void @llvm.lifetime.end.p0(i64 8, ptr %7) #10
  %56 = load i32, ptr %8, align 4, !tbaa !15
  %57 = icmp ne i32 %56, 0
  br i1 %57, label %58, label %59

58:                                               ; preds = %53
  store i1 true, ptr %2, align 1
  store i32 1, ptr %5, align 4
  br label %60

59:                                               ; preds = %53
  store i1 false, ptr %2, align 1
  store i32 1, ptr %5, align 4
  br label %60

60:                                               ; preds = %59, %58
  call void @llvm.lifetime.end.p0(i64 8, ptr %6) #10
  br label %66

61:                                               ; preds = %1
  %62 = load ptr, ptr %3, align 8, !tbaa !26
  %63 = getelementptr inbounds nuw %struct.sockaddr, ptr %62, i32 0, i32 0
  %64 = load i16, ptr %63, align 2, !tbaa !27
  %65 = zext i16 %64 to i32
  call void (i32, ptr, ...) @pmix_output(i32 noundef 0, ptr noundef @.str.4, i32 noundef %65)
  store i1 false, ptr %2, align 1
  br label %66

66:                                               ; preds = %61, %60, %24
  %67 = load i1, ptr %2, align 1
  ret i1 %67
}