; Function Attrs: nounwind uwtable
define zeroext i1 @pmix_net_islocalhost(ptr noundef readonly captures(none) %0) local_unnamed_addr #0 {
  %2 = load i16, ptr %0, align 2, !tbaa !22
  switch i16 %2, label %24 [
    i16 2, label %3
    i16 10, label %8
  ]

3:                                                ; preds = %1
  %4 = getelementptr inbounds nuw i8, ptr %0, i64 4
  %5 = load i32, ptr %4, align 4, !tbaa !25
  %6 = and i32 %5, 127
  %7 = icmp eq i32 %6, 127
  br label %26

8:                                                ; preds = %1
  %9 = getelementptr inbounds nuw i8, ptr %0, i64 8
  %10 = load i32, ptr %9, align 4, !tbaa !28
  %11 = icmp eq i32 %10, 0
  br i1 %11, label %12, label %26

12:                                               ; preds = %8
  %13 = getelementptr inbounds nuw i8, ptr %0, i64 12
  %14 = load i32, ptr %13, align 4, !tbaa !28
  %15 = icmp eq i32 %14, 0
  br i1 %15, label %16, label %26

16:                                               ; preds = %12
  %17 = getelementptr inbounds nuw i8, ptr %0, i64 16
  %18 = load i32, ptr %17, align 4, !tbaa !28
  %19 = icmp eq i32 %18, 0
  br i1 %19, label %20, label %26

20:                                               ; preds = %16
  %21 = getelementptr inbounds nuw i8, ptr %0, i64 20
  %22 = load i32, ptr %21, align 4, !tbaa !28
  %23 = icmp eq i32 %22, 16777216
  br label %26

24:                                               ; preds = %1
  %25 = zext i16 %2 to i32
  tail call void (i32, ptr, ...) @pmix_output(i32 noundef 0, ptr noundef nonnull @.str.4, i32 noundef %25) #15
  br label %26

26:                                               ; preds = %8, %12, %16, %20, %24, %3
  %.1 = phi i1 [ false, %24 ], [ %7, %3 ], [ false, %16 ], [ false, %12 ], [ false, %8 ], [ %23, %20 ]
  ret i1 %.1
}